; Function Attrs: null_pointer_is_valid sspstrong uwtable
define hidden i32 @rtpstream_to_hash(ptr noundef %0) local_unnamed_addr #1 {
  %.not = icmp eq ptr %0, null
  br i1 %.not, label %4, label %2

2:                                                ; preds = %1
  %3 = tail call i32 @rtpstream_id_to_hash(ptr noundef nonnull %0)
  br label %4

4:                                                ; preds = %1, %2
  %.0 = phi i32 [ %3, %2 ], [ 0, %1 ]
  ret i32 %.0
}